target datalayout = "e-m:e-p270:32:32-p271:32:32-p272:64:64-i64:64-i128:128-f80:128-n8:16:32:64-S128"
target triple = "x86_64-unknown-linux-gnu"

%"class.sat::literal" = type { i32 }
%"class.sat::binspr" = type <{ ptr, %class.scoped_ptr.38, i32, i32, %class.vector.39, i32, i32, %class.svector.14, %class.svector.14, %class.svector.26, %class.svector.26, i32, i32, i32, i32, i32, [4 x i32], [5 x i32], [5 x i32], [4 x i8] }>
%class.scoped_ptr.38 = type { ptr }
%class.vector.39 = type { ptr }
%class.svector.14 = type { %class.vector.15 }
%class.vector.15 = type { ptr }
%class.svector.26 = type { %class.vector.27 }
%class.vector.27 = type { ptr }
%class.ptr_vector.20 = type { %class.vector.21 }
%class.vector.21 = type { ptr }

; Function Attrs: mustprogress nounwind uwtable
define linkonce_odr hidden noundef i32 @_ZNK6vectorIPN3sat6clauseELb0EjE4sizeEv(ptr noundef nonnull align 8 dereferenceable(8) %this) #4 comdat align 2 {
entry:
  %retval = alloca i32, align 4
  %this.addr = alloca ptr, align 8
  store ptr %this, ptr %this.addr, align 8
  %this1 = load ptr, ptr %this.addr, align 8
  %m_data = getelementptr inbounds %class.vector.21, ptr %this1, i32 0, i32 0
  %0 = load ptr, ptr %m_data, align 8
  %cmp = icmp eq ptr %0, null
  br i1 %cmp, label %if.then, label %if.end

if.then:                                          ; preds = %entry
  store i32 0, ptr %retval, align 4
  br label %return

if.end:                                           ; preds = %entry
  %m_data2 = getelementptr inbounds %class.vector.21, ptr %this1, i32 0, i32 0
  %1 = load ptr, ptr %m_data2, align 8
  %arrayidx = getelementptr inbounds i32, ptr %1, i64 -1
  %2 = load i32, ptr %arrayidx, align 4
  store i32 %2, ptr %retval, align 4
  br label %return

return:                                           ; preds = %if.end, %if.then
  %3 = load i32, ptr %retval, align 4
  ret i32 %3
}

; Function Attrs: mustprogress nounwind uwtable
define linkonce_odr hidden noundef zeroext i1 @_ZN3sat6binspr8g_is_satEv(ptr noundef nonnull align 8 dereferenceable(148) %this) #4 comdat align 2 {
entry:
  %this.addr = alloca ptr, align 8
  store ptr %this, ptr %this.addr, align 8
  %this1 = load ptr, ptr %this.addr, align 8
  %m_state = getelementptr inbounds %"class.sat::binspr", ptr %this1, i32 0, i32 11
  %0 = load i32, ptr %m_state, align 8
  %cmp = icmp ne i32 %0, 0
  ret i1 %cmp
}

; Function Attrs: mustprogress uwtable
define linkonce_odr hidden noundef ptr @_ZN6vectorIPN3sat6clauseELb0EjE3endEv(ptr noundef nonnull align 8 dereferenceable(8) %this) #5 comdat align 2 {
entry:
  %this.addr = alloca ptr, align 8
  store ptr %this, ptr %this.addr, align 8
  %this1 = load ptr, ptr %this.addr, align 8
  %m_data = getelementptr inbounds %class.vector.21, ptr %this1, i32 0, i32 0
  %0 = load ptr, ptr %m_data, align 8
  %call = call noundef i32 @_ZNK6vectorIPN3sat6clauseELb0EjE4sizeEv(ptr noundef nonnull align 8 dereferenceable(8) %this1)
  %idx.ext = zext i32 %call to i64
  %add.ptr = getelementptr inbounds ptr, ptr %0, i64 %idx.ext
  ret ptr %add.ptr
}

; Function Attrs: mustprogress nounwind uwtable
define linkonce_odr hidden noundef ptr @_ZN6vectorIPN3sat6clauseELb0EjE5beginEv(ptr noundef nonnull align 8 dereferenceable(8) %this) #4 comdat align 2 {
entry:
  %this.addr = alloca ptr, align 8
  store ptr %this, ptr %this.addr, align 8
  %this1 = load ptr, ptr %this.addr, align 8
  %m_data = getelementptr inbounds %class.vector.21, ptr %this1, i32 0, i32 0
  %0 = load ptr, ptr %m_data, align 8
  ret ptr %0
}

; Function Attrs: mustprogress nounwind uwtable
define linkonce_odr hidden noundef nonnull align 8 dereferenceable(8) ptr @_ZN6vectorI10ptr_vectorIN3sat6clauseEELb1EjEixEj(ptr noundef nonnull align 8 dereferenceable(8) %this, i32 noundef %idx) #4 comdat align 2 {
entry:
  %this.addr = alloca ptr, align 8
  %idx.addr = alloca i32, align 4
  store ptr %this, ptr %this.addr, align 8
  store i32 %idx, ptr %idx.addr, align 4
  %this1 = load ptr, ptr %this.addr, align 8
  %m_data = getelementptr inbounds %class.vector.39, ptr %this1, i32 0, i32 0
  %0 = load ptr, ptr %m_data, align 8
  %1 = load i32, ptr %idx.addr, align 4
  %idxprom = zext i32 %1 to i64
  %arrayidx = getelementptr inbounds %class.ptr_vector.20, ptr %0, i64 %idxprom
  ret ptr %arrayidx
}

; Function Attrs: mustprogress nounwind uwtable
define linkonce_odr hidden noundef i32 @_ZNK3sat7literal5indexEv(ptr noundef nonnull align 4 dereferenceable(4) %this) #4 comdat align 2 {
entry:
  %this.addr = alloca ptr, align 8
  store ptr %this, ptr %this.addr, align 8
  %this1 = load ptr, ptr %this.addr, align 8
  %m_val = getelementptr inbounds %"class.sat::literal", ptr %this1, i32 0, i32 0
  %0 = load i32, ptr %m_val, align 4
  ret i32 %0
}

; Function Attrs: mustprogress uwtable
define hidden void @_ZN3sat6binspr24clauses_are_unit_impliedENS_7literalE(ptr noundef nonnull align 8 dereferenceable(148) %this, i32 %p.coerce) #5 align 2 {
entry:
  %p = alloca %"class.sat::literal", align 4
  %this.addr = alloca ptr, align 8
  %__range1 = alloca ptr, align 8
  %__begin1 = alloca ptr, align 8
  %__end1 = alloca ptr, align 8
  %cp = alloca ptr, align 8
  %coerce.dive = getelementptr inbounds %"class.sat::literal", ptr %p, i32 0, i32 0
  store i32 %p.coerce, ptr %coerce.dive, align 4
  store ptr %this, ptr %this.addr, align 8
  %this1 = load ptr, ptr %this.addr, align 8
  %m_use_list = getelementptr inbounds %"class.sat::binspr", ptr %this1, i32 0, i32 4
  %call = call noundef i32 @_ZNK3sat7literal5indexEv(ptr noundef nonnull align 4 dereferenceable(4) %p)
  %call2 = call noundef nonnull align 8 dereferenceable(8) ptr @_ZN6vectorI10ptr_vectorIN3sat6clauseEELb1EjEixEj(ptr noundef nonnull align 8 dereferenceable(8) %m_use_list, i32 noundef %call)
  store ptr %call2, ptr %__range1, align 8
  %0 = load ptr, ptr %__range1, align 8
  %call3 = call noundef ptr @_ZN6vectorIPN3sat6clauseELb0EjE5beginEv(ptr noundef nonnull align 8 dereferenceable(8) %0)
  store ptr %call3, ptr %__begin1, align 8
  %1 = load ptr, ptr %__range1, align 8
  %call4 = call noundef ptr @_ZN6vectorIPN3sat6clauseELb0EjE3endEv(ptr noundef nonnull align 8 dereferenceable(8) %1)
  store ptr %call4, ptr %__end1, align 8
  br label %for.cond

for.cond:                                         ; preds = %for.inc, %entry
  %2 = load ptr, ptr %__begin1, align 8
  %3 = load ptr, ptr %__end1, align 8
  %cmp = icmp ne ptr %2, %3
  br i1 %cmp, label %for.body, label %for.end

for.body:                                         ; preds = %for.cond
  %4 = load ptr, ptr %__begin1, align 8
  %5 = load ptr, ptr %4, align 8
  store ptr %5, ptr %cp, align 8
  %call5 = call noundef zeroext i1 @_ZN3sat6binspr8g_is_satEv(ptr noundef nonnull align 8 dereferenceable(148) %this1)
  br i1 %call5, label %if.end, label %if.then

if.then:                                          ; preds = %for.body
  br label %for.end

if.end:                                           ; preds = %for.body
  %6 = load ptr, ptr %cp, align 8
  call void @_ZN3sat6binspr22clause_is_unit_impliedERKNS_6clauseE(ptr noundef nonnull align 8 dereferenceable(148) %this1, ptr noundef nonnull align 4 dereferenceable(20) %6)
  br label %for.inc

for.inc:                                          ; preds = %if.end
  %7 = load ptr, ptr %__begin1, align 8
  %incdec.ptr = getelementptr inbounds ptr, ptr %7, i32 1
  store ptr %incdec.ptr, ptr %__begin1, align 8
  br label %for.cond

for.end:                                          ; preds = %if.then, %for.cond
  ret void
}