; Function Attrs: mustprogress uwtable
define hidden void @_ZN3sat6binspr24clauses_are_unit_impliedENS_7literalE(ptr nocapture noundef nonnull align 8 dereferenceable(148) %this, i32 %p.coerce) local_unnamed_addr #3 align 2 {
entry:
  %m_use_list = getelementptr inbounds i8, ptr %this, i64 24
  %0 = load ptr, ptr %m_use_list, align 8
  %idxprom.i = zext i32 %p.coerce to i64
  %arrayidx.i = getelementptr inbounds %class.ptr_vector.20, ptr %0, i64 %idxprom.i
  %1 = load ptr, ptr %arrayidx.i, align 8
  %cmp.i.i = icmp eq ptr %1, null
  br i1 %cmp.i.i, label %for.end, label %_ZN6vectorIPN3sat6clauseELb0EjE3endEv.exit

_ZN6vectorIPN3sat6clauseELb0EjE3endEv.exit:       ; preds = %entry
  %arrayidx.i.i = getelementptr inbounds i8, ptr %1, i64 -4
  %2 = load i32, ptr %arrayidx.i.i, align 4
  %3 = zext i32 %2 to i64
  %add.ptr.i = getelementptr inbounds ptr, ptr %1, i64 %3
  %m_state.i = getelementptr inbounds i8, ptr %this, i64 72
  %cmp.not4 = icmp eq i32 %2, 0
  %4 = load i32, ptr %m_state.i, align 8
  %cmp.i.not5 = icmp eq i32 %4, 0
  %or.cond6 = select i1 %cmp.not4, i1 true, i1 %cmp.i.not5
  br i1 %or.cond6, label %for.end, label %if.end

if.end:                                           ; preds = %_ZN6vectorIPN3sat6clauseELb0EjE3endEv.exit, %if.end
  %__begin1.07 = phi ptr [ %incdec.ptr, %if.end ], [ %1, %_ZN6vectorIPN3sat6clauseELb0EjE3endEv.exit ]
  %5 = load ptr, ptr %__begin1.07, align 8
  tail call void @_ZN3sat6binspr22clause_is_unit_impliedERKNS_6clauseE(ptr noundef nonnull align 8 dereferenceable(148) %this, ptr noundef nonnull align 4 dereferenceable(20) %5)
  %incdec.ptr = getelementptr inbounds i8, ptr %__begin1.07, i64 8
  %cmp.not = icmp eq ptr %incdec.ptr, %add.ptr.i
  %6 = load i32, ptr %m_state.i, align 8
  %cmp.i.not = icmp eq i32 %6, 0
  %or.cond = select i1 %cmp.not, i1 true, i1 %cmp.i.not
  br i1 %or.cond, label %for.end, label %if.end

for.end:                                          ; preds = %if.end, %entry, %_ZN6vectorIPN3sat6clauseELb0EjE3endEv.exit
  ret void
}